; Function Attrs: mustprogress uwtable
define void @_ZN9RBDataMapC2EP15UResourceBundleS1_R10UErrorCode(ptr nocapture noundef nonnull align 8 dereferenceable(16) %this, ptr noundef %headers, ptr noundef %data, ptr noundef nonnull align 4 dereferenceable(4) %status) unnamed_addr #4 align 2 personality ptr @__gxx_personality_v0 {
entry:
  store ptr getelementptr inbounds ({ [13 x ptr] }, ptr @_ZTV9RBDataMap, i64 0, i32 0, i64 2), ptr %this, align 8
  %call = tail call noundef ptr @_ZN6icu_757UMemorynwEm(i64 noundef 88) #15
  %new.isnull = icmp ne ptr %call, null
  tail call void @llvm.assume(i1 %new.isnull)
  store ptr null, ptr %call, align 8
  %0 = load i32, ptr %status, align 4
  %cmp.i.i.i = icmp slt i32 %0, 1
  br i1 %cmp.i.i.i, label %if.end.i.i, label %new.cont

if.end.i.i:                                       ; preds = %entry
  %hashObj.i.i = getelementptr inbounds i8, ptr %call, i64 8
  %call2.i.i3 = invoke ptr @uhash_init_75(ptr noundef nonnull %hashObj.i.i, ptr noundef nonnull @uhash_hashCaselessUnicodeString_75, ptr noundef nonnull @uhash_compareCaselessUnicodeString_75, ptr noundef null, ptr noundef nonnull %status)
          to label %call2.i.i.noexc unwind label %lpad

call2.i.i.noexc:                                  ; preds = %if.end.i.i
  %1 = load i32, ptr %status, align 4
  %cmp.i3.i.i = icmp sgt i32 %1, 0
  br i1 %cmp.i3.i.i, label %new.cont, label %if.then5.i.i

if.then5.i.i:                                     ; preds = %call2.i.i.noexc
  store ptr %hashObj.i.i, ptr %call, align 8
  %call8.i.i4 = invoke ptr @uhash_setKeyDeleter_75(ptr noundef nonnull %hashObj.i.i, ptr noundef nonnull @uprv_deleteUObject_75)
          to label %new.cont unwind label %lpad

new.cont:                                         ; preds = %call2.i.i.noexc, %entry, %if.then5.i.i
  %fData = getelementptr inbounds i8, ptr %this, i64 8
  store ptr %call, ptr %fData, align 8
  %2 = load ptr, ptr %call, align 8
  %call.i5 = tail call noundef ptr @uhash_setValueDeleter_75(ptr noundef %2, ptr noundef nonnull @deleteResBund)
  tail call void @_ZN9RBDataMap4initEP15UResourceBundleS1_R10UErrorCode(ptr noundef nonnull align 8 dereferenceable(16) %this, ptr noundef %headers, ptr noundef %data, ptr noundef nonnull align 4 dereferenceable(4) %status)
  ret void

lpad:                                             ; preds = %if.then5.i.i, %if.end.i.i
  %3 = landingpad { ptr, i32 }
          cleanup
  tail call void @_ZN6icu_757UMemorydlEPv(ptr noundef nonnull %call) #15
  resume { ptr, i32 } %3
}